target datalayout = "e-m:e-p270:32:32-p271:32:32-p272:64:64-i64:64-i128:128-f80:128-n8:16:32:64-S128"
target triple = "x86_64-unknown-linux-gnu"

%"class.QuantLib::SphereCylinderOptimizer" = type { double, double, double, double, double, double, double, double, i8, double }

; Function Attrs: mustprogress nounwind uwtable
define noundef double @_ZNK8QuantLib23SphereCylinderOptimizer17objectiveFunctionEd(ptr noundef nonnull align 8 dereferenceable(80) %this, double noundef %x1) #3 align 2 {
entry:
  %this.addr = alloca ptr, align 8
  %x1.addr = alloca double, align 8
  %x2sq = alloca double, align 8
  %x2 = alloca double, align 8
  %x3 = alloca double, align 8
  %err = alloca double, align 8
  store ptr %this, ptr %this.addr, align 8, !tbaa !3
  store double %x1, ptr %x1.addr, align 8, !tbaa !7
  %this1 = load ptr, ptr %this.addr, align 8
  call void @llvm.lifetime.start.p0(i64 8, ptr %x2sq) #15
  %s_ = getelementptr inbounds nuw %"class.QuantLib::SphereCylinderOptimizer", ptr %this1, i32 0, i32 1
  %0 = load double, ptr %s_, align 8, !tbaa !12
  %s_2 = getelementptr inbounds nuw %"class.QuantLib::SphereCylinderOptimizer", ptr %this1, i32 0, i32 1
  %1 = load double, ptr %s_2, align 8, !tbaa !12
  %2 = load double, ptr %x1.addr, align 8, !tbaa !7
  %alpha_ = getelementptr inbounds nuw %"class.QuantLib::SphereCylinderOptimizer", ptr %this1, i32 0, i32 2
  %3 = load double, ptr %alpha_, align 8, !tbaa !13
  %sub = fsub double %2, %3
  %4 = load double, ptr %x1.addr, align 8, !tbaa !7
  %alpha_3 = getelementptr inbounds nuw %"class.QuantLib::SphereCylinderOptimizer", ptr %this1, i32 0, i32 2
  %5 = load double, ptr %alpha_3, align 8, !tbaa !13
  %sub4 = fsub double %4, %5
  %mul5 = fmul double %sub, %sub4
  %neg = fneg double %mul5
  %6 = call double @llvm.fmuladd.f64(double %0, double %1, double %neg)
  store double %6, ptr %x2sq, align 8, !tbaa !7
  call void @llvm.lifetime.start.p0(i64 8, ptr %x2) #15
  %7 = load double, ptr %x2sq, align 8, !tbaa !7
  %cmp = fcmp oge double %7, 0.000000e+00
  br i1 %cmp, label %cond.true, label %cond.false

cond.true:                                        ; preds = %entry
  %8 = load double, ptr %x2sq, align 8, !tbaa !7
  %call = call double @sqrt(double noundef %8) #15, !tbaa !21
  br label %cond.end

cond.false:                                       ; preds = %entry
  br label %cond.end

cond.end:                                         ; preds = %cond.false, %cond.true
  %cond = phi double [ %call, %cond.true ], [ 0.000000e+00, %cond.false ]
  store double %cond, ptr %x2, align 8, !tbaa !7
  call void @llvm.lifetime.start.p0(i64 8, ptr %x3) #15
  %r_ = getelementptr inbounds nuw %"class.QuantLib::SphereCylinderOptimizer", ptr %this1, i32 0, i32 0
  %9 = load double, ptr %r_, align 8, !tbaa !9
  %r_6 = getelementptr inbounds nuw %"class.QuantLib::SphereCylinderOptimizer", ptr %this1, i32 0, i32 0
  %10 = load double, ptr %r_6, align 8, !tbaa !9
  %11 = load double, ptr %x1.addr, align 8, !tbaa !7
  %12 = load double, ptr %x1.addr, align 8, !tbaa !7
  %mul7 = fmul double %11, %12
  %neg8 = fneg double %mul7
  %13 = call double @llvm.fmuladd.f64(double %9, double %10, double %neg8)
  %14 = load double, ptr %x2, align 8, !tbaa !7
  %15 = load double, ptr %x2, align 8, !tbaa !7
  %neg9 = fneg double %14
  %16 = call double @llvm.fmuladd.f64(double %neg9, double %15, double %13)
  %call10 = call double @sqrt(double noundef %16) #15, !tbaa !21
  store double %call10, ptr %x3, align 8, !tbaa !7
  call void @llvm.lifetime.start.p0(i64 8, ptr %err) #15
  store double 0.000000e+00, ptr %err, align 8, !tbaa !7
  %17 = load double, ptr %x1.addr, align 8, !tbaa !7
  %z1_ = getelementptr inbounds nuw %"class.QuantLib::SphereCylinderOptimizer", ptr %this1, i32 0, i32 3
  %18 = load double, ptr %z1_, align 8, !tbaa !14
  %sub11 = fsub double %17, %18
  %19 = load double, ptr %x1.addr, align 8, !tbaa !7
  %z1_12 = getelementptr inbounds nuw %"class.QuantLib::SphereCylinderOptimizer", ptr %this1, i32 0, i32 3
  %20 = load double, ptr %z1_12, align 8, !tbaa !14
  %sub13 = fsub double %19, %20
  %21 = load double, ptr %err, align 8, !tbaa !7
  %22 = call double @llvm.fmuladd.f64(double %sub11, double %sub13, double %21)
  store double %22, ptr %err, align 8, !tbaa !7
  %23 = load double, ptr %x2, align 8, !tbaa !7
  %z2_ = getelementptr inbounds nuw %"class.QuantLib::SphereCylinderOptimizer", ptr %this1, i32 0, i32 4
  %24 = load double, ptr %z2_, align 8, !tbaa !15
  %sub14 = fsub double %23, %24
  %25 = load double, ptr %x2, align 8, !tbaa !7
  %z2_15 = getelementptr inbounds nuw %"class.QuantLib::SphereCylinderOptimizer", ptr %this1, i32 0, i32 4
  %26 = load double, ptr %z2_15, align 8, !tbaa !15
  %sub16 = fsub double %25, %26
  %27 = load double, ptr %err, align 8, !tbaa !7
  %28 = call double @llvm.fmuladd.f64(double %sub14, double %sub16, double %27)
  store double %28, ptr %err, align 8, !tbaa !7
  %29 = load double, ptr %x3, align 8, !tbaa !7
  %z3_ = getelementptr inbounds nuw %"class.QuantLib::SphereCylinderOptimizer", ptr %this1, i32 0, i32 5
  %30 = load double, ptr %z3_, align 8, !tbaa !16
  %sub17 = fsub double %29, %30
  %31 = load double, ptr %x3, align 8, !tbaa !7
  %z3_18 = getelementptr inbounds nuw %"class.QuantLib::SphereCylinderOptimizer", ptr %this1, i32 0, i32 5
  %32 = load double, ptr %z3_18, align 8, !tbaa !16
  %sub19 = fsub double %31, %32
  %mul = fmul double %sub17, %sub19
  %zweight_ = getelementptr inbounds nuw %"class.QuantLib::SphereCylinderOptimizer", ptr %this1, i32 0, i32 9
  %33 = load double, ptr %zweight_, align 8, !tbaa !17
  %34 = load double, ptr %err, align 8, !tbaa !7
  %35 = call double @llvm.fmuladd.f64(double %mul, double %33, double %34)
  store double %35, ptr %err, align 8, !tbaa !7
  %36 = load double, ptr %err, align 8, !tbaa !7
  call void @llvm.lifetime.end.p0(i64 8, ptr %err) #15
  call void @llvm.lifetime.end.p0(i64 8, ptr %x3) #15
  call void @llvm.lifetime.end.p0(i64 8, ptr %x2) #15
  call void @llvm.lifetime.end.p0(i64 8, ptr %x2sq) #15
  ret double %36
}