; Function Attrs: mustprogress nofree nounwind willreturn memory(write, argmem: readwrite) uwtable
define noundef double @_ZNK8QuantLib23SphereCylinderOptimizer17objectiveFunctionEd(ptr nocapture noundef nonnull readonly align 8 dereferenceable(80) %this, double noundef %x1) local_unnamed_addr #10 align 2 {
entry:
  %s_ = getelementptr inbounds nuw i8, ptr %this, i64 8
  %0 = load double, ptr %s_, align 8, !tbaa !9
  %alpha_ = getelementptr inbounds nuw i8, ptr %this, i64 16
  %1 = load double, ptr %alpha_, align 8, !tbaa !10
  %sub = fsub double %x1, %1
  %2 = fneg double %sub
  %neg = fmul double %sub, %2
  %3 = tail call double @llvm.fmuladd.f64(double %0, double %0, double %neg)
  %cmp = fcmp ult double %3, 0.000000e+00
  br i1 %cmp, label %cond.end, label %cond.true

cond.true:                                        ; preds = %entry
  %call = tail call double @sqrt(double noundef %3) #22, !tbaa !25
  br label %cond.end

cond.end:                                         ; preds = %entry, %cond.true
  %cond = phi double [ %call, %cond.true ], [ 0.000000e+00, %entry ]
  %4 = load double, ptr %this, align 8, !tbaa !3
  %5 = fneg double %x1
  %neg8 = fmul double %x1, %5
  %6 = tail call double @llvm.fmuladd.f64(double %4, double %4, double %neg8)
  %neg9 = fneg double %cond
  %7 = tail call double @llvm.fmuladd.f64(double %neg9, double %cond, double %6)
  %call10 = tail call double @sqrt(double noundef %7) #22, !tbaa !25
  %z1_ = getelementptr inbounds nuw i8, ptr %this, i64 24
  %8 = load double, ptr %z1_, align 8, !tbaa !11
  %sub11 = fsub double %x1, %8
  %9 = tail call double @llvm.fmuladd.f64(double %sub11, double %sub11, double 0.000000e+00)
  %z2_ = getelementptr inbounds nuw i8, ptr %this, i64 32
  %10 = load double, ptr %z2_, align 8, !tbaa !12
  %sub14 = fsub double %cond, %10
  %11 = tail call double @llvm.fmuladd.f64(double %sub14, double %sub14, double %9)
  %z3_ = getelementptr inbounds nuw i8, ptr %this, i64 40
  %12 = load double, ptr %z3_, align 8, !tbaa !13
  %sub17 = fsub double %call10, %12
  %mul = fmul double %sub17, %sub17
  %zweight_ = getelementptr inbounds nuw i8, ptr %this, i64 72
  %13 = load double, ptr %zweight_, align 8, !tbaa !14
  %14 = tail call double @llvm.fmuladd.f64(double %mul, double %13, double %11)
  ret double %14
}